; Function Attrs: mustprogress uwtable
define internal fastcc void @_ZN32pxrInternal_v0_24__pxrReserved__12_GLOBAL__N_112_GetMappingsEv() unnamed_addr #0 personality ptr @__gxx_personality_v0 {
  %1 = alloca %"class.std::vector", align 8
  %2 = alloca %"class.pxrInternal_v0_24__pxrReserved__::TfToken", align 8
  %3 = load atomic i8, ptr @_ZGVZN32pxrInternal_v0_24__pxrReserved__12_GLOBAL__N_112_GetMappingsEvE6result acquire, align 8
  %4 = icmp eq i8 %3, 0
  br i1 %4, label %5, label %21, !prof !7

5:                                                ; preds = %0
  %6 = tail call i32 @__cxa_guard_acquire(ptr nonnull @_ZGVZN32pxrInternal_v0_24__pxrReserved__12_GLOBAL__N_112_GetMappingsEvE6result) #21
  %.not = icmp eq i32 %6, 0
  br i1 %.not, label %21, label %7

7:                                                ; preds = %5
  invoke void @_ZN32pxrInternal_v0_24__pxrReserved__7TfTokenC1EPKc(ptr noundef nonnull align 8 dereferenceable(8) %2, ptr noundef nonnull @.str.3)
          to label %8 unwind label %22

8:                                                ; preds = %7
  invoke fastcc void @_ZN32pxrInternal_v0_24__pxrReserved__12_GLOBAL__N_147_GetNamespacedAttributeMappingsForAppliedSchemaERKNS_7TfTokenE(ptr dead_on_unwind noalias writable align 8 %1, ptr noundef nonnull align 8 dereferenceable(8) %2)
          to label %9 unwind label %24

9:                                                ; preds = %8
  %10 = invoke noundef nonnull align 8 dereferenceable(56) ptr @_ZN32pxrInternal_v0_24__pxrReserved__14HdCameraSchema30GetNamespacedPropertiesLocatorEv()
          to label %11 unwind label %26

11:                                               ; preds = %9
  invoke void @_ZN32pxrInternal_v0_24__pxrReserved__26UsdImagingDataSourceMapped17AttributeMappingsC1ERKSt6vectorINS0_16AttributeMappingESaIS3_EERKNS_19HdDataSourceLocatorE(ptr noundef nonnull align 8 dereferenceable(40) @_ZZN32pxrInternal_v0_24__pxrReserved__12_GLOBAL__N_112_GetMappingsEvE6result, ptr noundef nonnull align 8 dereferenceable(24) %1, ptr noundef nonnull align 8 dereferenceable(56) %10)
          to label %12 unwind label %26

12:                                               ; preds = %11
  call void @_ZNSt6vectorIN32pxrInternal_v0_24__pxrReserved__26UsdImagingDataSourceMapped16AttributeMappingESaIS2_EED2Ev(ptr noundef nonnull align 8 dereferenceable(24) %1) #21
  %13 = load ptr, ptr %2, align 8
  %14 = ptrtoint ptr %13 to i64
  %15 = and i64 %14, 7
  %.not.i.i = icmp eq i64 %15, 0
  br i1 %.not.i.i, label %_ZN32pxrInternal_v0_24__pxrReserved__7TfTokenD2Ev.exit, label %16

16:                                               ; preds = %12
  %17 = and i64 %14, -8
  %18 = inttoptr i64 %17 to ptr
  %19 = atomicrmw sub ptr %18, i32 2 release, align 4
  br label %_ZN32pxrInternal_v0_24__pxrReserved__7TfTokenD2Ev.exit

_ZN32pxrInternal_v0_24__pxrReserved__7TfTokenD2Ev.exit: ; preds = %12, %16
  %20 = call i32 @__cxa_atexit(ptr nonnull @_ZN32pxrInternal_v0_24__pxrReserved__26UsdImagingDataSourceMapped17AttributeMappingsD1Ev, ptr nonnull @_ZZN32pxrInternal_v0_24__pxrReserved__12_GLOBAL__N_112_GetMappingsEvE6result, ptr nonnull @__dso_handle) #21
  call void @__cxa_guard_release(ptr nonnull @_ZGVZN32pxrInternal_v0_24__pxrReserved__12_GLOBAL__N_112_GetMappingsEvE6result) #21
  br label %21

21:                                               ; preds = %_ZN32pxrInternal_v0_24__pxrReserved__7TfTokenD2Ev.exit, %5, %0
  ret void

22:                                               ; preds = %7
  %23 = landingpad { ptr, i32 }
          cleanup
  br label %_ZN32pxrInternal_v0_24__pxrReserved__7TfTokenD2Ev.exit6

24:                                               ; preds = %8
  %25 = landingpad { ptr, i32 }
          cleanup
  br label %28

26:                                               ; preds = %11, %9
  %27 = landingpad { ptr, i32 }
          cleanup
  call void @_ZNSt6vectorIN32pxrInternal_v0_24__pxrReserved__26UsdImagingDataSourceMapped16AttributeMappingESaIS2_EED2Ev(ptr noundef nonnull align 8 dereferenceable(24) %1) #21
  br label %28

28:                                               ; preds = %26, %24
  %.pn = phi { ptr, i32 } [ %27, %26 ], [ %25, %24 ]
  %29 = load ptr, ptr %2, align 8
  %30 = ptrtoint ptr %29 to i64
  %31 = and i64 %30, 7
  %.not.i.i5 = icmp eq i64 %31, 0
  br i1 %.not.i.i5, label %_ZN32pxrInternal_v0_24__pxrReserved__7TfTokenD2Ev.exit6, label %32

32:                                               ; preds = %28
  %33 = and i64 %30, -8
  %34 = inttoptr i64 %33 to ptr
  %35 = atomicrmw sub ptr %34, i32 2 release, align 4
  br label %_ZN32pxrInternal_v0_24__pxrReserved__7TfTokenD2Ev.exit6

_ZN32pxrInternal_v0_24__pxrReserved__7TfTokenD2Ev.exit6: ; preds = %32, %28, %22
  %.pn.pn = phi { ptr, i32 } [ %23, %22 ], [ %.pn, %28 ], [ %.pn, %32 ]
  call void @__cxa_guard_abort(ptr nonnull @_ZGVZN32pxrInternal_v0_24__pxrReserved__12_GLOBAL__N_112_GetMappingsEvE6result) #21
  resume { ptr, i32 } %.pn.pn
}